target datalayout = "e-m:e-p270:32:32-p271:32:32-p272:64:64-i64:64-i128:128-f80:128-n8:16:32:64-S128"
target triple = "x86_64-pc-linux-gnu"

%"struct.icu_77::PCEBuffer" = type { [16 x %"struct.icu_77::PCEI"], ptr, i32, i32 }
%"struct.icu_77::PCEI" = type { i64, i32, i32 }

; Function Attrs: mustprogress nounwind uwtable
define void @_ZN6icu_779PCEBufferD2Ev(ptr noundef nonnull align 8 dereferenceable(272) %0) unnamed_addr #0 align 2 personality ptr @__gxx_personality_v0 {
  %2 = alloca ptr, align 8
  store ptr %0, ptr %2, align 8, !tbaa !23
  %3 = load ptr, ptr %2, align 8
  %4 = getelementptr inbounds nuw %"struct.icu_77::PCEBuffer", ptr %3, i32 0, i32 1
  %5 = load ptr, ptr %4, align 8, !tbaa !25
  %6 = getelementptr inbounds nuw %"struct.icu_77::PCEBuffer", ptr %3, i32 0, i32 0
  %7 = getelementptr inbounds [16 x %"struct.icu_77::PCEI"], ptr %6, i64 0, i64 0
  %8 = icmp ne ptr %5, %7
  br i1 %8, label %9, label %13

9:                                                ; preds = %1
  %10 = getelementptr inbounds nuw %"struct.icu_77::PCEBuffer", ptr %3, i32 0, i32 1
  %11 = load ptr, ptr %10, align 8, !tbaa !25
  invoke void @uprv_free_77(ptr noundef %11)
          to label %12 unwind label %14

12:                                               ; preds = %9
  br label %13

13:                                               ; preds = %12, %1
  ret void

14:                                               ; preds = %9
  %15 = landingpad { ptr, i32 }
          catch ptr null
  %16 = extractvalue { ptr, i32 } %15, 0
  call void @__clang_call_terminate(ptr %16) #10
  unreachable
}