; Function Attrs: mustprogress nounwind uwtable
define void @_ZN6icu_779PCEBufferD2Ev(ptr noundef nonnull readonly align 8 dereferenceable(272) %0) unnamed_addr #1 align 2 personality ptr @__gxx_personality_v0 {
  %2 = getelementptr inbounds nuw i8, ptr %0, i64 256
  %3 = load ptr, ptr %2, align 8, !tbaa !18
  %.not = icmp eq ptr %3, %0
  br i1 %.not, label %5, label %4

4:                                                ; preds = %1
  invoke void @uprv_free_77(ptr noundef %3)
          to label %5 unwind label %6

5:                                                ; preds = %4, %1
  ret void

6:                                                ; preds = %4
  %7 = landingpad { ptr, i32 }
          catch ptr null
  %8 = extractvalue { ptr, i32 } %7, 0
  tail call void @__clang_call_terminate(ptr %8) #13
  unreachable
}